; Function Attrs: mustprogress nounwind uwtable
define internal fastcc noundef zeroext i1 @_ZN5clang19RecursiveASTVisitorIN12_GLOBAL__N_113EHCodeVisitorEE28VisitOMPUsesAllocatorsClauseEPNS_23OMPUsesAllocatorsClauseE(ptr noundef nonnull align 1 dereferenceable(1) %0, ptr noundef %1) unnamed_addr #0 align 2 {
  %3 = alloca %"struct.clang::OMPUsesAllocatorsClause::Data", align 8
  %4 = getelementptr inbounds nuw i8, ptr %1, i64 16
  %5 = load i32, ptr %4, align 8
  %6 = icmp eq i32 %5, 0
  br i1 %6, label %._crit_edge, label %.lr.ph

.lr.ph:                                           ; preds = %2
  %7 = getelementptr inbounds nuw i8, ptr %3, i64 8
  br label %10

8:                                                ; preds = %13
  %9 = add nuw i32 %.078, 1
  %exitcond.not = icmp eq i32 %9, %5
  br i1 %exitcond.not, label %._crit_edge, label %10, !llvm.loop !138

10:                                               ; preds = %.lr.ph, %8
  %.078 = phi i32 [ 0, %.lr.ph ], [ %9, %8 ]
  call void @_ZNK5clang23OMPUsesAllocatorsClause16getAllocatorDataEj(ptr dead_on_unwind nonnull writable sret(%"struct.clang::OMPUsesAllocatorsClause::Data") align 8 %3, ptr noundef nonnull align 8 dereferenceable(24) %1, i32 noundef %.078) #23
  %11 = load ptr, ptr %3, align 8
  %12 = call fastcc noundef zeroext i1 @_ZN5clang19RecursiveASTVisitorIN12_GLOBAL__N_113EHCodeVisitorEE12TraverseStmtEPNS_4StmtEPN4llvm15SmallVectorImplINS6_14PointerIntPairIS5_Lj1EbNS6_21PointerLikeTypeTraitsIS5_EENS6_18PointerIntPairInfoIS5_Lj1ESA_EEEEEE(ptr noundef nonnull align 1 dereferenceable(1) %0, ptr noundef %11, ptr noundef null)
  br i1 %12, label %13, label %._crit_edge

13:                                               ; preds = %10
  %14 = load ptr, ptr %7, align 8
  %15 = call fastcc noundef zeroext i1 @_ZN5clang19RecursiveASTVisitorIN12_GLOBAL__N_113EHCodeVisitorEE12TraverseStmtEPNS_4StmtEPN4llvm15SmallVectorImplINS6_14PointerIntPairIS5_Lj1EbNS6_21PointerLikeTypeTraitsIS5_EENS6_18PointerIntPairInfoIS5_Lj1ESA_EEEEEE(ptr noundef nonnull align 1 dereferenceable(1) %0, ptr noundef %14, ptr noundef null)
  br i1 %15, label %8, label %._crit_edge

._crit_edge:                                      ; preds = %10, %13, %8, %2
  %.lcssa = phi i1 [ true, %2 ], [ true, %8 ], [ false, %13 ], [ false, %10 ]
  ret i1 %.lcssa
}